target datalayout = "e-m:e-p270:32:32-p271:32:32-p272:64:64-i64:64-i128:128-f80:128-n8:16:32:64-S128"
target triple = "x86_64-pc-linux-gnu"

%"class.ZXing::Pdf417::DetectionResultColumn" = type <{ %"class.ZXing::Pdf417::BoundingBox", %"class.std::vector", i32, [4 x i8] }>
%"class.ZXing::Pdf417::BoundingBox" = type { i32, i32, %"class.ZXing::Nullable", %"class.ZXing::Nullable", %"class.ZXing::Nullable", %"class.ZXing::Nullable", i32, i32, i32, i32 }
%"class.ZXing::Nullable" = type { i8, %"class.ZXing::ResultPoint" }
%"class.ZXing::ResultPoint" = type { %"struct.ZXing::PointT" }
%"struct.ZXing::PointT" = type { double, double }
%"class.std::vector" = type { %"struct.std::_Vector_base" }
%"struct.std::_Vector_base" = type { %"struct.std::_Vector_base<ZXing::Nullable<ZXing::Pdf417::Codeword>, std::allocator<ZXing::Nullable<ZXing::Pdf417::Codeword>>>::_Vector_impl" }
%"struct.std::_Vector_base<ZXing::Nullable<ZXing::Pdf417::Codeword>, std::allocator<ZXing::Nullable<ZXing::Pdf417::Codeword>>>::_Vector_impl" = type { %"struct.std::_Vector_base<ZXing::Nullable<ZXing::Pdf417::Codeword>, std::allocator<ZXing::Nullable<ZXing::Pdf417::Codeword>>>::_Vector_impl_data" }
%"struct.std::_Vector_base<ZXing::Nullable<ZXing::Pdf417::Codeword>, std::allocator<ZXing::Nullable<ZXing::Pdf417::Codeword>>>::_Vector_impl_data" = type { ptr, ptr, ptr }
%"class.ZXing::Nullable.0" = type { i8, %"class.ZXing::Pdf417::Codeword" }
%"class.ZXing::Pdf417::Codeword" = type { i32, i32, i32, i32, i32 }

; Function Attrs: mustprogress nounwind uwtable
define linkonce_odr void @_ZN5ZXing6Pdf4178CodewordC2Ev(ptr noundef nonnull align 4 dereferenceable(20) %0) unnamed_addr #2 comdat align 2 {
  %2 = alloca ptr, align 8
  store ptr %0, ptr %2, align 8, !tbaa !51
  %3 = load ptr, ptr %2, align 8
  %4 = getelementptr inbounds nuw %"class.ZXing::Pdf417::Codeword", ptr %3, i32 0, i32 0
  store i32 0, ptr %4, align 4, !tbaa !98
  %5 = getelementptr inbounds nuw %"class.ZXing::Pdf417::Codeword", ptr %3, i32 0, i32 1
  store i32 0, ptr %5, align 4, !tbaa !99
  %6 = getelementptr inbounds nuw %"class.ZXing::Pdf417::Codeword", ptr %3, i32 0, i32 2
  store i32 0, ptr %6, align 4, !tbaa !54
  %7 = getelementptr inbounds nuw %"class.ZXing::Pdf417::Codeword", ptr %3, i32 0, i32 3
  store i32 0, ptr %7, align 4, !tbaa !53
  %8 = getelementptr inbounds nuw %"class.ZXing::Pdf417::Codeword", ptr %3, i32 0, i32 4
  store i32 -1, ptr %8, align 4, !tbaa !55
  ret void
}

; Function Attrs: mustprogress nounwind uwtable
define linkonce_odr noundef i32 @_ZN5ZXing11narrow_castIimEET_OT0_(ptr noundef nonnull align 8 dereferenceable(8) %0) #2 comdat {
  %2 = alloca ptr, align 8
  store ptr %0, ptr %2, align 8, !tbaa !95
  %3 = load ptr, ptr %2, align 8, !tbaa !95
  %4 = load i64, ptr %3, align 8, !tbaa !30
  %5 = trunc i64 %4 to i32
  ret i32 %5
}

; Function Attrs: mustprogress nounwind uwtable
define linkonce_odr noundef i64 @_ZNKSt6vectorIN5ZXing8NullableINS0_6Pdf4178CodewordEEESaIS4_EE4sizeEv(ptr noundef nonnull align 8 dereferenceable(24) %0) #2 comdat align 2 {
  %2 = alloca ptr, align 8
  store ptr %0, ptr %2, align 8, !tbaa !26
  %3 = load ptr, ptr %2, align 8
  %4 = getelementptr inbounds nuw %"struct.std::_Vector_base", ptr %3, i32 0, i32 0
  %5 = getelementptr inbounds nuw %"struct.std::_Vector_base<ZXing::Nullable<ZXing::Pdf417::Codeword>, std::allocator<ZXing::Nullable<ZXing::Pdf417::Codeword>>>::_Vector_impl_data", ptr %4, i32 0, i32 1
  %6 = load ptr, ptr %5, align 8, !tbaa !33
  %7 = getelementptr inbounds nuw %"struct.std::_Vector_base", ptr %3, i32 0, i32 0
  %8 = getelementptr inbounds nuw %"struct.std::_Vector_base<ZXing::Nullable<ZXing::Pdf417::Codeword>, std::allocator<ZXing::Nullable<ZXing::Pdf417::Codeword>>>::_Vector_impl_data", ptr %7, i32 0, i32 0
  %9 = load ptr, ptr %8, align 8, !tbaa !32
  %10 = ptrtoint ptr %6 to i64
  %11 = ptrtoint ptr %9 to i64
  %12 = sub i64 %10, %11
  %13 = sdiv exact i64 %12, 24
  ret i64 %13
}

; Function Attrs: mustprogress nounwind uwtable
define linkonce_odr noundef i32 @_ZNK5ZXing6Pdf41711BoundingBox4minYEv(ptr noundef nonnull align 8 dereferenceable(120) %0) #2 comdat align 2 {
  %2 = alloca ptr, align 8
  store ptr %0, ptr %2, align 8, !tbaa !8
  %3 = load ptr, ptr %2, align 8
  %4 = getelementptr inbounds nuw %"class.ZXing::Pdf417::BoundingBox", ptr %3, i32 0, i32 8
  %5 = load i32, ptr %4, align 8, !tbaa !29
  ret i32 %5
}

; Function Attrs: mustprogress uwtable
define linkonce_odr void @_ZN5ZXing8NullableINS_6Pdf4178CodewordEEC2EDn(ptr noundef nonnull align 4 dereferenceable(24) %0, ptr %1) unnamed_addr #0 comdat align 2 {
  %3 = alloca ptr, align 8
  %4 = alloca ptr, align 8
  store ptr %0, ptr %3, align 8, !tbaa !39
  store ptr %1, ptr %4, align 8, !tbaa !40
  %5 = load ptr, ptr %3, align 8
  %6 = getelementptr inbounds nuw %"class.ZXing::Nullable.0", ptr %5, i32 0, i32 0
  store i8 0, ptr %6, align 4, !tbaa !42
  %7 = getelementptr inbounds nuw %"class.ZXing::Nullable.0", ptr %5, i32 0, i32 1
  call void @_ZN5ZXing6Pdf4178CodewordC2Ev(ptr noundef nonnull align 4 dereferenceable(20) %7)
  ret void
}

; Function Attrs: mustprogress nounwind uwtable
define linkonce_odr noundef i32 @_ZN5ZXing4SizeISt6vectorINS_8NullableINS_6Pdf4178CodewordEEESaIS5_EEEEDTcmcldtfp_4sizeEcvi_EERKT_(ptr noundef nonnull align 8 dereferenceable(24) %0) #2 comdat {
  %2 = alloca ptr, align 8
  %3 = alloca i64, align 8
  store ptr %0, ptr %2, align 8, !tbaa !26
  call void @llvm.lifetime.start.p0(i64 8, ptr %3) #15
  %4 = load ptr, ptr %2, align 8, !tbaa !26
  %5 = call noundef i64 @_ZNKSt6vectorIN5ZXing8NullableINS0_6Pdf4178CodewordEEESaIS4_EE4sizeEv(ptr noundef nonnull align 8 dereferenceable(24) %4) #15
  store i64 %5, ptr %3, align 8, !tbaa !30
  %6 = call noundef i32 @_ZN5ZXing11narrow_castIimEET_OT0_(ptr noundef nonnull align 8 dereferenceable(8) %3) #15
  call void @llvm.lifetime.end.p0(i64 8, ptr %3) #15
  ret i32 %6
}

; Function Attrs: inlinehint mustprogress nounwind uwtable
define linkonce_odr noundef zeroext i1 @_ZN5ZXingneERKNS_8NullableINS_6Pdf4178CodewordEEEDn(ptr noundef nonnull align 4 dereferenceable(24) %0, ptr %1) #6 comdat {
  %3 = alloca ptr, align 8
  %4 = alloca ptr, align 8
  store ptr %0, ptr %3, align 8, !tbaa !39
  store ptr %1, ptr %4, align 8, !tbaa !40
  %5 = load ptr, ptr %3, align 8, !tbaa !39
  %6 = getelementptr inbounds nuw %"class.ZXing::Nullable.0", ptr %5, i32 0, i32 0
  %7 = load i8, ptr %6, align 4, !tbaa !42, !range !45, !noundef !46
  %8 = trunc i8 %7 to i1
  ret i1 %8
}

; Function Attrs: mustprogress nounwind uwtable
define linkonce_odr noundef nonnull align 4 dereferenceable(24) ptr @_ZNKSt6vectorIN5ZXing8NullableINS0_6Pdf4178CodewordEEESaIS4_EEixEm(ptr noundef nonnull align 8 dereferenceable(24) %0, i64 noundef %1) #2 comdat align 2 {
  %3 = alloca ptr, align 8
  %4 = alloca i64, align 8
  store ptr %0, ptr %3, align 8, !tbaa !26
  store i64 %1, ptr %4, align 8, !tbaa !30
  %5 = load ptr, ptr %3, align 8
  %6 = getelementptr inbounds nuw %"struct.std::_Vector_base", ptr %5, i32 0, i32 0
  %7 = getelementptr inbounds nuw %"struct.std::_Vector_base<ZXing::Nullable<ZXing::Pdf417::Codeword>, std::allocator<ZXing::Nullable<ZXing::Pdf417::Codeword>>>::_Vector_impl_data", ptr %6, i32 0, i32 0
  %8 = load ptr, ptr %7, align 8, !tbaa !32
  %9 = load i64, ptr %4, align 8, !tbaa !30
  %10 = getelementptr inbounds nuw %"class.ZXing::Nullable.0", ptr %8, i64 %9
  ret ptr %10
}

; Function Attrs: mustprogress nounwind uwtable
define linkonce_odr noundef i32 @_ZNK5ZXing6Pdf41721DetectionResultColumn23imageRowToCodewordIndexEi(ptr noundef nonnull align 8 dereferenceable(148) %0, i32 noundef %1) #2 comdat align 2 {
  %3 = alloca ptr, align 8
  %4 = alloca i32, align 4
  store ptr %0, ptr %3, align 8, !tbaa !3
  store i32 %1, ptr %4, align 4, !tbaa !34
  %5 = load ptr, ptr %3, align 8
  %6 = load i32, ptr %4, align 4, !tbaa !34
  %7 = getelementptr inbounds nuw %"class.ZXing::Pdf417::DetectionResultColumn", ptr %5, i32 0, i32 0
  %8 = call noundef i32 @_ZNK5ZXing6Pdf41711BoundingBox4minYEv(ptr noundef nonnull align 8 dereferenceable(120) %7)
  %9 = sub nsw i32 %6, %8
  ret i32 %9
}

; Function Attrs: mustprogress uwtable
define void @_ZNK5ZXing6Pdf41721DetectionResultColumn14codewordNearbyEi(ptr dead_on_unwind noalias writable sret(%"class.ZXing::Nullable.0") align 4 %0, ptr noundef nonnull align 8 dereferenceable(148) %1, i32 noundef %2) #0 align 2 {
  %4 = alloca ptr, align 8
  %5 = alloca i32, align 4
  %6 = alloca i32, align 4
  %7 = alloca i32, align 4
  %8 = alloca i32, align 4
  %9 = alloca i32, align 4
  store ptr %1, ptr %4, align 8, !tbaa !3
  store i32 %2, ptr %5, align 4, !tbaa !34
  %10 = load ptr, ptr %4, align 8
  call void @llvm.lifetime.start.p0(i64 4, ptr %6) #15
  %11 = load i32, ptr %5, align 4, !tbaa !34
  %12 = call noundef i32 @_ZNK5ZXing6Pdf41721DetectionResultColumn23imageRowToCodewordIndexEi(ptr noundef nonnull align 8 dereferenceable(148) %10, i32 noundef %11)
  store i32 %12, ptr %6, align 4, !tbaa !34
  %13 = getelementptr inbounds nuw %"class.ZXing::Pdf417::DetectionResultColumn", ptr %10, i32 0, i32 1
  %14 = load i32, ptr %6, align 4, !tbaa !34
  %15 = sext i32 %14 to i64
  %16 = call noundef nonnull align 4 dereferenceable(24) ptr @_ZNKSt6vectorIN5ZXing8NullableINS0_6Pdf4178CodewordEEESaIS4_EEixEm(ptr noundef nonnull align 8 dereferenceable(24) %13, i64 noundef %15) #15
  %17 = call noundef zeroext i1 @_ZN5ZXingneERKNS_8NullableINS_6Pdf4178CodewordEEEDn(ptr noundef nonnull align 4 dereferenceable(24) %16, ptr null)
  br i1 %17, label %18, label %23

18:                                               ; preds = %3
  %19 = getelementptr inbounds nuw %"class.ZXing::Pdf417::DetectionResultColumn", ptr %10, i32 0, i32 1
  %20 = load i32, ptr %6, align 4, !tbaa !34
  %21 = sext i32 %20 to i64
  %22 = call noundef nonnull align 4 dereferenceable(24) ptr @_ZNKSt6vectorIN5ZXing8NullableINS0_6Pdf4178CodewordEEESaIS4_EEixEm(ptr noundef nonnull align 8 dereferenceable(24) %19, i64 noundef %21) #15
  call void @llvm.memcpy.p0.p0.i64(ptr align 4 %0, ptr align 4 %22, i64 24, i1 false), !tbaa.struct !35
  store i32 1, ptr %7, align 4
  br label %78

23:                                               ; preds = %3
  call void @llvm.lifetime.start.p0(i64 4, ptr %8) #15
  store i32 1, ptr %8, align 4, !tbaa !34
  br label %24

24:                                               ; preds = %72, %23
  %25 = load i32, ptr %8, align 4, !tbaa !34
  %26 = icmp slt i32 %25, 5
  br i1 %26, label %28, label %27

27:                                               ; preds = %24
  store i32 2, ptr %7, align 4
  br label %75

28:                                               ; preds = %24
  call void @llvm.lifetime.start.p0(i64 4, ptr %9) #15
  %29 = load i32, ptr %5, align 4, !tbaa !34
  %30 = call noundef i32 @_ZNK5ZXing6Pdf41721DetectionResultColumn23imageRowToCodewordIndexEi(ptr noundef nonnull align 8 dereferenceable(148) %10, i32 noundef %29)
  %31 = load i32, ptr %8, align 4, !tbaa !34
  %32 = sub nsw i32 %30, %31
  store i32 %32, ptr %9, align 4, !tbaa !34
  %33 = load i32, ptr %9, align 4, !tbaa !34
  %34 = icmp sge i32 %33, 0
  br i1 %34, label %35, label %47

35:                                               ; preds = %28
  %36 = getelementptr inbounds nuw %"class.ZXing::Pdf417::DetectionResultColumn", ptr %10, i32 0, i32 1
  %37 = load i32, ptr %9, align 4, !tbaa !34
  %38 = sext i32 %37 to i64
  %39 = call noundef nonnull align 4 dereferenceable(24) ptr @_ZNKSt6vectorIN5ZXing8NullableINS0_6Pdf4178CodewordEEESaIS4_EEixEm(ptr noundef nonnull align 8 dereferenceable(24) %36, i64 noundef %38) #15
  %40 = call noundef zeroext i1 @_ZN5ZXingneERKNS_8NullableINS_6Pdf4178CodewordEEEDn(ptr noundef nonnull align 4 dereferenceable(24) %39, ptr null)
  br i1 %40, label %41, label %46

41:                                               ; preds = %35
  %42 = getelementptr inbounds nuw %"class.ZXing::Pdf417::DetectionResultColumn", ptr %10, i32 0, i32 1
  %43 = load i32, ptr %9, align 4, !tbaa !34
  %44 = sext i32 %43 to i64
  %45 = call noundef nonnull align 4 dereferenceable(24) ptr @_ZNKSt6vectorIN5ZXing8NullableINS0_6Pdf4178CodewordEEESaIS4_EEixEm(ptr noundef nonnull align 8 dereferenceable(24) %42, i64 noundef %44) #15
  call void @llvm.memcpy.p0.p0.i64(ptr align 4 %0, ptr align 4 %45, i64 24, i1 false), !tbaa.struct !35
  store i32 1, ptr %7, align 4
  br label %69

46:                                               ; preds = %35
  br label %47

47:                                               ; preds = %46, %28
  %48 = load i32, ptr %5, align 4, !tbaa !34
  %49 = call noundef i32 @_ZNK5ZXing6Pdf41721DetectionResultColumn23imageRowToCodewordIndexEi(ptr noundef nonnull align 8 dereferenceable(148) %10, i32 noundef %48)
  %50 = load i32, ptr %8, align 4, !tbaa !34
  %51 = add nsw i32 %49, %50
  store i32 %51, ptr %9, align 4, !tbaa !34
  %52 = load i32, ptr %9, align 4, !tbaa !34
  %53 = getelementptr inbounds nuw %"class.ZXing::Pdf417::DetectionResultColumn", ptr %10, i32 0, i32 1
  %54 = call noundef i32 @_ZN5ZXing4SizeISt6vectorINS_8NullableINS_6Pdf4178CodewordEEESaIS5_EEEEDTcmcldtfp_4sizeEcvi_EERKT_(ptr noundef nonnull align 8 dereferenceable(24) %53)
  %55 = icmp slt i32 %52, %54
  br i1 %55, label %56, label %68

56:                                               ; preds = %47
  %57 = getelementptr inbounds nuw %"class.ZXing::Pdf417::DetectionResultColumn", ptr %10, i32 0, i32 1
  %58 = load i32, ptr %9, align 4, !tbaa !34
  %59 = sext i32 %58 to i64
  %60 = call noundef nonnull align 4 dereferenceable(24) ptr @_ZNKSt6vectorIN5ZXing8NullableINS0_6Pdf4178CodewordEEESaIS4_EEixEm(ptr noundef nonnull align 8 dereferenceable(24) %57, i64 noundef %59) #15
  %61 = call noundef zeroext i1 @_ZN5ZXingneERKNS_8NullableINS_6Pdf4178CodewordEEEDn(ptr noundef nonnull align 4 dereferenceable(24) %60, ptr null)
  br i1 %61, label %62, label %67

62:                                               ; preds = %56
  %63 = getelementptr inbounds nuw %"class.ZXing::Pdf417::DetectionResultColumn", ptr %10, i32 0, i32 1
  %64 = load i32, ptr %9, align 4, !tbaa !34
  %65 = sext i32 %64 to i64
  %66 = call noundef nonnull align 4 dereferenceable(24) ptr @_ZNKSt6vectorIN5ZXing8NullableINS0_6Pdf4178CodewordEEESaIS4_EEixEm(ptr noundef nonnull align 8 dereferenceable(24) %63, i64 noundef %65) #15
  call void @llvm.memcpy.p0.p0.i64(ptr align 4 %0, ptr align 4 %66, i64 24, i1 false), !tbaa.struct !35
  store i32 1, ptr %7, align 4
  br label %69

67:                                               ; preds = %56
  br label %68

68:                                               ; preds = %67, %47
  store i32 0, ptr %7, align 4
  br label %69

69:                                               ; preds = %68, %62, %41
  call void @llvm.lifetime.end.p0(i64 4, ptr %9) #15
  %70 = load i32, ptr %7, align 4
  switch i32 %70, label %75 [
    i32 0, label %71
  ]

71:                                               ; preds = %69
  br label %72

72:                                               ; preds = %71
  %73 = load i32, ptr %8, align 4, !tbaa !34
  %74 = add nsw i32 %73, 1
  store i32 %74, ptr %8, align 4, !tbaa !34
  br label %24, !llvm.loop !37

75:                                               ; preds = %69, %27
  call void @llvm.lifetime.end.p0(i64 4, ptr %8) #15
  %76 = load i32, ptr %7, align 4
  switch i32 %76, label %78 [
    i32 2, label %77
  ]

77:                                               ; preds = %75
  call void @_ZN5ZXing8NullableINS_6Pdf4178CodewordEEC2EDn(ptr noundef nonnull align 4 dereferenceable(24) %0, ptr null)
  store i32 1, ptr %7, align 4
  br label %78

78:                                               ; preds = %77, %75, %18
  call void @llvm.lifetime.end.p0(i64 4, ptr %6) #15
  ret void
}