; Function Attrs: mustprogress nofree norecurse nosync nounwind memory(readwrite, inaccessiblemem: none) uwtable
define void @_ZNK5ZXing6Pdf41721DetectionResultColumn14codewordNearbyEi(ptr dead_on_unwind noalias writable writeonly sret(%"class.ZXing::Nullable.0") align 4 captures(none) %0, ptr noundef nonnull readonly align 8 captures(none) dereferenceable(148) %1, i32 noundef %2) local_unnamed_addr #5 align 2 {
  %4 = getelementptr inbounds nuw i8, ptr %1, i64 112
  %5 = load i32, ptr %4, align 8, !tbaa !22
  %6 = sub nsw i32 %2, %5
  %7 = getelementptr inbounds nuw i8, ptr %1, i64 120
  %8 = sext i32 %6 to i64
  %9 = load ptr, ptr %7, align 8, !tbaa !23
  %10 = getelementptr inbounds nuw %"class.ZXing::Nullable.0", ptr %9, i64 %8
  %11 = load i8, ptr %10, align 4, !tbaa !25, !range !28, !noundef !29
  %12 = trunc nuw i8 %11 to i1
  br i1 %12, label %20, label %.preheader

.preheader:                                       ; preds = %3
  %13 = getelementptr inbounds nuw i8, ptr %1, i64 128
  %14 = load ptr, ptr %13, align 8
  %15 = ptrtoint ptr %14 to i64
  %16 = ptrtoint ptr %9 to i64
  %17 = sub i64 %15, %16
  %18 = sdiv exact i64 %17, 24
  %sext = shl i64 %18, 32
  %19 = ashr exact i64 %sext, 32
  br label %21

20:                                               ; preds = %3
  tail call void @llvm.memcpy.p0.p0.i64(ptr noundef nonnull align 4 dereferenceable(24) %0, ptr noundef nonnull align 4 dereferenceable(24) %10, i64 24, i1 false), !tbaa.struct !30
  br label %.critedge

21:                                               ; preds = %.preheader, %38
  %indvars.iv = phi i64 [ 1, %.preheader ], [ %indvars.iv.next, %38 ]
  %22 = trunc nuw nsw i64 %indvars.iv to i32
  %23 = sub nsw i32 %6, %22
  %24 = icmp sgt i32 %23, -1
  br i1 %24, label %25, label %31

25:                                               ; preds = %21
  %26 = zext nneg i32 %23 to i64
  %27 = getelementptr inbounds nuw %"class.ZXing::Nullable.0", ptr %9, i64 %26
  %28 = load i8, ptr %27, align 4, !tbaa !25, !range !28, !noundef !29
  %29 = trunc nuw i8 %28 to i1
  br i1 %29, label %30, label %31

30:                                               ; preds = %25
  tail call void @llvm.memcpy.p0.p0.i64(ptr noundef nonnull align 4 dereferenceable(24) %0, ptr noundef nonnull align 4 dereferenceable(24) %27, i64 24, i1 false), !tbaa.struct !30
  br label %.critedge

31:                                               ; preds = %25, %21
  %32 = add nsw i64 %indvars.iv, %8
  %.wide = icmp slt i64 %32, %19
  br i1 %.wide, label %33, label %38

33:                                               ; preds = %31
  %34 = getelementptr inbounds nuw %"class.ZXing::Nullable.0", ptr %9, i64 %32
  %35 = load i8, ptr %34, align 4, !tbaa !25, !range !28, !noundef !29
  %36 = trunc nuw i8 %35 to i1
  br i1 %36, label %37, label %38

37:                                               ; preds = %33
  tail call void @llvm.memcpy.p0.p0.i64(ptr noundef nonnull align 4 dereferenceable(24) %0, ptr noundef nonnull align 4 dereferenceable(24) %34, i64 24, i1 false), !tbaa.struct !30
  br label %.critedge

38:                                               ; preds = %33, %31
  %indvars.iv.next = add nuw nsw i64 %indvars.iv, 1
  %exitcond = icmp eq i64 %indvars.iv.next, 5
  br i1 %exitcond, label %.critedge21, label %21, !llvm.loop !33

.critedge21:                                      ; preds = %38
  store i8 0, ptr %0, align 4, !tbaa !25
  %39 = getelementptr inbounds nuw i8, ptr %0, i64 4
  %40 = getelementptr inbounds nuw i8, ptr %0, i64 20
  tail call void @llvm.memset.p0.i64(ptr noundef nonnull align 4 dereferenceable(20) %39, i8 0, i64 16, i1 false)
  store i32 -1, ptr %40, align 4, !tbaa !35
  br label %.critedge

.critedge:                                        ; preds = %37, %30, %.critedge21, %20
  ret void
}